target datalayout = "e-m:e-p270:32:32-p271:32:32-p272:64:64-i64:64-i128:128-f80:128-n8:16:32:64-S128"
target triple = "x86_64-pc-linux-gnu"

%struct.UriParserStateStructA = type { ptr, i32, ptr, ptr }
%struct.UriUriStructA = type { %struct.UriTextRangeStructA, %struct.UriTextRangeStructA, %struct.UriTextRangeStructA, %struct.UriHostDataStructA, %struct.UriTextRangeStructA, ptr, ptr, %struct.UriTextRangeStructA, %struct.UriTextRangeStructA, i32, i32, ptr }
%struct.UriHostDataStructA = type { ptr, ptr, %struct.UriTextRangeStructA }
%struct.UriTextRangeStructA = type { ptr, ptr }

; Function Attrs: inlinehint nounwind uwtable
define internal void @uriStopMallocA(ptr noundef %0, ptr noundef %1) #4 {
  %3 = alloca ptr, align 8
  %4 = alloca ptr, align 8
  store ptr %0, ptr %3, align 8, !tbaa !3
  store ptr %1, ptr %4, align 8, !tbaa !10
  %5 = load ptr, ptr %3, align 8, !tbaa !3
  %6 = getelementptr inbounds nuw %struct.UriParserStateStructA, ptr %5, i32 0, i32 0
  %7 = load ptr, ptr %6, align 8, !tbaa !12
  %8 = load ptr, ptr %4, align 8, !tbaa !10
  %9 = call i32 @uriFreeUriMembersMmA(ptr noundef %7, ptr noundef %8)
  %10 = load ptr, ptr %3, align 8, !tbaa !3
  %11 = getelementptr inbounds nuw %struct.UriParserStateStructA, ptr %10, i32 0, i32 2
  store ptr null, ptr %11, align 8, !tbaa !17
  %12 = load ptr, ptr %3, align 8, !tbaa !3
  %13 = getelementptr inbounds nuw %struct.UriParserStateStructA, ptr %12, i32 0, i32 1
  store i32 3, ptr %13, align 8, !tbaa !18
  ret void
}

; Function Attrs: nounwind uwtable
define internal ptr @uriParsePortA(ptr noundef %0, ptr noundef %1, ptr noundef %2) #0 {
  %4 = alloca ptr, align 8
  %5 = alloca ptr, align 8
  %6 = alloca ptr, align 8
  %7 = alloca ptr, align 8
  store ptr %0, ptr %5, align 8, !tbaa !3
  store ptr %1, ptr %6, align 8, !tbaa !8
  store ptr %2, ptr %7, align 8, !tbaa !8
  %8 = load ptr, ptr %6, align 8, !tbaa !8
  %9 = load ptr, ptr %7, align 8, !tbaa !8
  %10 = icmp uge ptr %8, %9
  br i1 %10, label %11, label %13

11:                                               ; preds = %3
  %12 = load ptr, ptr %7, align 8, !tbaa !8
  store ptr %12, ptr %4, align 8
  br label %25

13:                                               ; preds = %3
  %14 = load ptr, ptr %6, align 8, !tbaa !8
  %15 = load i8, ptr %14, align 1, !tbaa !57
  %16 = sext i8 %15 to i32
  switch i32 %16, label %23 [
    i32 48, label %17
    i32 49, label %17
    i32 50, label %17
    i32 51, label %17
    i32 52, label %17
    i32 53, label %17
    i32 54, label %17
    i32 55, label %17
    i32 56, label %17
    i32 57, label %17
  ]

17:                                               ; preds = %13, %13, %13, %13, %13, %13, %13, %13, %13, %13
  %18 = load ptr, ptr %5, align 8, !tbaa !3
  %19 = load ptr, ptr %6, align 8, !tbaa !8
  %20 = getelementptr inbounds i8, ptr %19, i64 1
  %21 = load ptr, ptr %7, align 8, !tbaa !8
  %22 = call ptr @uriParsePortA(ptr noundef %18, ptr noundef %20, ptr noundef %21)
  store ptr %22, ptr %4, align 8
  br label %25

23:                                               ; preds = %13
  %24 = load ptr, ptr %6, align 8, !tbaa !8
  store ptr %24, ptr %4, align 8
  br label %25

25:                                               ; preds = %23, %17, %11
  %26 = load ptr, ptr %4, align 8
  ret ptr %26
}

; Function Attrs: nounwind uwtable
define internal ptr @uriParseOwnHost2A(ptr noundef %0, ptr noundef %1, ptr noundef %2, ptr noundef %3) #0 {
  %5 = alloca ptr, align 8
  %6 = alloca ptr, align 8
  %7 = alloca ptr, align 8
  %8 = alloca ptr, align 8
  %9 = alloca ptr, align 8
  %10 = alloca ptr, align 8
  %11 = alloca i32, align 4
  store ptr %0, ptr %6, align 8, !tbaa !3
  store ptr %1, ptr %7, align 8, !tbaa !8
  store ptr %2, ptr %8, align 8, !tbaa !8
  store ptr %3, ptr %9, align 8, !tbaa !10
  %12 = load ptr, ptr %7, align 8, !tbaa !8
  %13 = load ptr, ptr %8, align 8, !tbaa !8
  %14 = icmp uge ptr %12, %13
  br i1 %14, label %15, label %26

15:                                               ; preds = %4
  %16 = load ptr, ptr %6, align 8, !tbaa !3
  %17 = load ptr, ptr %7, align 8, !tbaa !8
  %18 = load ptr, ptr %9, align 8, !tbaa !10
  %19 = call i32 @uriOnExitOwnHost2A(ptr noundef %16, ptr noundef %17, ptr noundef %18)
  %20 = icmp ne i32 %19, 0
  br i1 %20, label %24, label %21

21:                                               ; preds = %15
  %22 = load ptr, ptr %6, align 8, !tbaa !3
  %23 = load ptr, ptr %9, align 8, !tbaa !10
  call void @uriStopMallocA(ptr noundef %22, ptr noundef %23)
  store ptr null, ptr %5, align 8
  br label %60

24:                                               ; preds = %15
  %25 = load ptr, ptr %8, align 8, !tbaa !8
  store ptr %25, ptr %5, align 8
  br label %60

26:                                               ; preds = %4
  %27 = load ptr, ptr %7, align 8, !tbaa !8
  %28 = load i8, ptr %27, align 1, !tbaa !57
  %29 = sext i8 %28 to i32
  switch i32 %29, label %46 [
    i32 33, label %30
    i32 36, label %30
    i32 37, label %30
    i32 38, label %30
    i32 40, label %30
    i32 41, label %30
    i32 45, label %30
    i32 42, label %30
    i32 44, label %30
    i32 46, label %30
    i32 59, label %30
    i32 39, label %30
    i32 95, label %30
    i32 126, label %30
    i32 43, label %30
    i32 61, label %30
    i32 48, label %30
    i32 49, label %30
    i32 50, label %30
    i32 51, label %30
    i32 52, label %30
    i32 53, label %30
    i32 54, label %30
    i32 55, label %30
    i32 56, label %30
    i32 57, label %30
    i32 65, label %30
    i32 66, label %30
    i32 67, label %30
    i32 68, label %30
    i32 69, label %30
    i32 70, label %30
    i32 97, label %30
    i32 98, label %30
    i32 99, label %30
    i32 100, label %30
    i32 101, label %30
    i32 102, label %30
    i32 103, label %30
    i32 71, label %30
    i32 104, label %30
    i32 72, label %30
    i32 105, label %30
    i32 73, label %30
    i32 106, label %30
    i32 74, label %30
    i32 107, label %30
    i32 75, label %30
    i32 108, label %30
    i32 76, label %30
    i32 109, label %30
    i32 77, label %30
    i32 110, label %30
    i32 78, label %30
    i32 111, label %30
    i32 79, label %30
    i32 112, label %30
    i32 80, label %30
    i32 113, label %30
    i32 81, label %30
    i32 114, label %30
    i32 82, label %30
    i32 115, label %30
    i32 83, label %30
    i32 116, label %30
    i32 84, label %30
    i32 117, label %30
    i32 85, label %30
    i32 118, label %30
    i32 86, label %30
    i32 119, label %30
    i32 87, label %30
    i32 120, label %30
    i32 88, label %30
    i32 121, label %30
    i32 89, label %30
    i32 122, label %30
    i32 90, label %30
  ]

30:                                               ; preds = %26, %26, %26, %26, %26, %26, %26, %26, %26, %26, %26, %26, %26, %26, %26, %26, %26, %26, %26, %26, %26, %26, %26, %26, %26, %26, %26, %26, %26, %26, %26, %26, %26, %26, %26, %26, %26, %26, %26, %26, %26, %26, %26, %26, %26, %26, %26, %26, %26, %26, %26, %26, %26, %26, %26, %26, %26, %26, %26, %26, %26, %26, %26, %26, %26, %26, %26, %26, %26, %26, %26, %26, %26, %26, %26, %26, %26, %26
  call void @llvm.lifetime.start.p0(i64 8, ptr %10) #7
  %31 = load ptr, ptr %6, align 8, !tbaa !3
  %32 = load ptr, ptr %7, align 8, !tbaa !8
  %33 = load ptr, ptr %8, align 8, !tbaa !8
  %34 = load ptr, ptr %9, align 8, !tbaa !10
  %35 = call ptr @uriParsePctSubUnresA(ptr noundef %31, ptr noundef %32, ptr noundef %33, ptr noundef %34)
  store ptr %35, ptr %10, align 8, !tbaa !8
  %36 = load ptr, ptr %10, align 8, !tbaa !8
  %37 = icmp eq ptr %36, null
  br i1 %37, label %38, label %39

38:                                               ; preds = %30
  store ptr null, ptr %5, align 8
  store i32 1, ptr %11, align 4
  br label %45

39:                                               ; preds = %30
  %40 = load ptr, ptr %6, align 8, !tbaa !3
  %41 = load ptr, ptr %10, align 8, !tbaa !8
  %42 = load ptr, ptr %8, align 8, !tbaa !8
  %43 = load ptr, ptr %9, align 8, !tbaa !10
  %44 = call ptr @uriParseOwnHost2A(ptr noundef %40, ptr noundef %41, ptr noundef %42, ptr noundef %43)
  store ptr %44, ptr %5, align 8
  store i32 1, ptr %11, align 4
  br label %45

45:                                               ; preds = %39, %38
  call void @llvm.lifetime.end.p0(i64 8, ptr %10) #7
  br label %60

46:                                               ; preds = %26
  %47 = load ptr, ptr %6, align 8, !tbaa !3
  %48 = load ptr, ptr %7, align 8, !tbaa !8
  %49 = load ptr, ptr %9, align 8, !tbaa !10
  %50 = call i32 @uriOnExitOwnHost2A(ptr noundef %47, ptr noundef %48, ptr noundef %49)
  %51 = icmp ne i32 %50, 0
  br i1 %51, label %55, label %52

52:                                               ; preds = %46
  %53 = load ptr, ptr %6, align 8, !tbaa !3
  %54 = load ptr, ptr %9, align 8, !tbaa !10
  call void @uriStopMallocA(ptr noundef %53, ptr noundef %54)
  store ptr null, ptr %5, align 8
  br label %60

55:                                               ; preds = %46
  %56 = load ptr, ptr %6, align 8, !tbaa !3
  %57 = load ptr, ptr %7, align 8, !tbaa !8
  %58 = load ptr, ptr %8, align 8, !tbaa !8
  %59 = call ptr @uriParseAuthorityTwoA(ptr noundef %56, ptr noundef %57, ptr noundef %58)
  store ptr %59, ptr %5, align 8
  br label %60

60:                                               ; preds = %55, %52, %45, %24, %21
  %61 = load ptr, ptr %5, align 8
  ret ptr %61
}

; Function Attrs: inlinehint nounwind uwtable
define internal ptr @uriParseAuthorityTwoA(ptr noundef %0, ptr noundef %1, ptr noundef %2) #4 {
  %4 = alloca ptr, align 8
  %5 = alloca ptr, align 8
  %6 = alloca ptr, align 8
  %7 = alloca ptr, align 8
  %8 = alloca ptr, align 8
  %9 = alloca i32, align 4
  store ptr %0, ptr %5, align 8, !tbaa !3
  store ptr %1, ptr %6, align 8, !tbaa !8
  store ptr %2, ptr %7, align 8, !tbaa !8
  %10 = load ptr, ptr %6, align 8, !tbaa !8
  %11 = load ptr, ptr %7, align 8, !tbaa !8
  %12 = icmp uge ptr %10, %11
  br i1 %12, label %13, label %15

13:                                               ; preds = %3
  %14 = load ptr, ptr %7, align 8, !tbaa !8
  store ptr %14, ptr %4, align 8
  br label %46

15:                                               ; preds = %3
  %16 = load ptr, ptr %6, align 8, !tbaa !8
  %17 = load i8, ptr %16, align 1, !tbaa !57
  %18 = sext i8 %17 to i32
  switch i32 %18, label %44 [
    i32 58, label %19
  ]

19:                                               ; preds = %15
  call void @llvm.lifetime.start.p0(i64 8, ptr %8) #7
  %20 = load ptr, ptr %5, align 8, !tbaa !3
  %21 = load ptr, ptr %6, align 8, !tbaa !8
  %22 = getelementptr inbounds i8, ptr %21, i64 1
  %23 = load ptr, ptr %7, align 8, !tbaa !8
  %24 = call ptr @uriParsePortA(ptr noundef %20, ptr noundef %22, ptr noundef %23)
  store ptr %24, ptr %8, align 8, !tbaa !8
  %25 = load ptr, ptr %8, align 8, !tbaa !8
  %26 = icmp eq ptr %25, null
  br i1 %26, label %27, label %28

27:                                               ; preds = %19
  store ptr null, ptr %4, align 8
  store i32 1, ptr %9, align 4
  br label %43

28:                                               ; preds = %19
  %29 = load ptr, ptr %6, align 8, !tbaa !8
  %30 = getelementptr inbounds i8, ptr %29, i64 1
  %31 = load ptr, ptr %5, align 8, !tbaa !3
  %32 = getelementptr inbounds nuw %struct.UriParserStateStructA, ptr %31, i32 0, i32 0
  %33 = load ptr, ptr %32, align 8, !tbaa !12
  %34 = getelementptr inbounds nuw %struct.UriUriStructA, ptr %33, i32 0, i32 4
  %35 = getelementptr inbounds nuw %struct.UriTextRangeStructA, ptr %34, i32 0, i32 0
  store ptr %30, ptr %35, align 8, !tbaa !41
  %36 = load ptr, ptr %8, align 8, !tbaa !8
  %37 = load ptr, ptr %5, align 8, !tbaa !3
  %38 = getelementptr inbounds nuw %struct.UriParserStateStructA, ptr %37, i32 0, i32 0
  %39 = load ptr, ptr %38, align 8, !tbaa !12
  %40 = getelementptr inbounds nuw %struct.UriUriStructA, ptr %39, i32 0, i32 4
  %41 = getelementptr inbounds nuw %struct.UriTextRangeStructA, ptr %40, i32 0, i32 1
  store ptr %36, ptr %41, align 8, !tbaa !42
  %42 = load ptr, ptr %8, align 8, !tbaa !8
  store ptr %42, ptr %4, align 8
  store i32 1, ptr %9, align 4
  br label %43

43:                                               ; preds = %28, %27
  call void @llvm.lifetime.end.p0(i64 8, ptr %8) #7
  br label %46

44:                                               ; preds = %15
  %45 = load ptr, ptr %6, align 8, !tbaa !8
  store ptr %45, ptr %4, align 8
  br label %46

46:                                               ; preds = %44, %43, %13
  %47 = load ptr, ptr %4, align 8
  ret ptr %47
}

; Function Attrs: inlinehint nounwind uwtable
define internal ptr @uriParseOwnHostA(ptr noundef %0, ptr noundef %1, ptr noundef %2, ptr noundef %3) #4 {
  %5 = alloca ptr, align 8
  %6 = alloca ptr, align 8
  %7 = alloca ptr, align 8
  %8 = alloca ptr, align 8
  %9 = alloca ptr, align 8
  %10 = alloca ptr, align 8
  %11 = alloca i32, align 4
  store ptr %0, ptr %6, align 8, !tbaa !3
  store ptr %1, ptr %7, align 8, !tbaa !8
  store ptr %2, ptr %8, align 8, !tbaa !8
  store ptr %3, ptr %9, align 8, !tbaa !10
  %12 = load ptr, ptr %7, align 8, !tbaa !8
  %13 = load ptr, ptr %8, align 8, !tbaa !8
  %14 = icmp uge ptr %12, %13
  br i1 %14, label %15, label %23

15:                                               ; preds = %4
  %16 = load ptr, ptr %8, align 8, !tbaa !8
  %17 = load ptr, ptr %6, align 8, !tbaa !3
  %18 = getelementptr inbounds nuw %struct.UriParserStateStructA, ptr %17, i32 0, i32 0
  %19 = load ptr, ptr %18, align 8, !tbaa !12
  %20 = getelementptr inbounds nuw %struct.UriUriStructA, ptr %19, i32 0, i32 2
  %21 = getelementptr inbounds nuw %struct.UriTextRangeStructA, ptr %20, i32 0, i32 1
  store ptr %16, ptr %21, align 8, !tbaa !38
  %22 = load ptr, ptr %8, align 8, !tbaa !8
  store ptr %22, ptr %5, align 8
  br label %56

23:                                               ; preds = %4
  %24 = load ptr, ptr %7, align 8, !tbaa !8
  %25 = load i8, ptr %24, align 1, !tbaa !57
  %26 = sext i8 %25 to i32
  switch i32 %26, label %50 [
    i32 91, label %27
  ]

27:                                               ; preds = %23
  call void @llvm.lifetime.start.p0(i64 8, ptr %10) #7
  %28 = load ptr, ptr %6, align 8, !tbaa !3
  %29 = load ptr, ptr %7, align 8, !tbaa !8
  %30 = getelementptr inbounds i8, ptr %29, i64 1
  %31 = load ptr, ptr %8, align 8, !tbaa !8
  %32 = load ptr, ptr %9, align 8, !tbaa !10
  %33 = call ptr @uriParseIpLit2A(ptr noundef %28, ptr noundef %30, ptr noundef %31, ptr noundef %32)
  store ptr %33, ptr %10, align 8, !tbaa !8
  %34 = load ptr, ptr %10, align 8, !tbaa !8
  %35 = icmp eq ptr %34, null
  br i1 %35, label %36, label %37

36:                                               ; preds = %27
  store ptr null, ptr %5, align 8
  store i32 1, ptr %11, align 4
  br label %49

37:                                               ; preds = %27
  %38 = load ptr, ptr %7, align 8, !tbaa !8
  %39 = getelementptr inbounds i8, ptr %38, i64 1
  %40 = load ptr, ptr %6, align 8, !tbaa !3
  %41 = getelementptr inbounds nuw %struct.UriParserStateStructA, ptr %40, i32 0, i32 0
  %42 = load ptr, ptr %41, align 8, !tbaa !12
  %43 = getelementptr inbounds nuw %struct.UriUriStructA, ptr %42, i32 0, i32 2
  %44 = getelementptr inbounds nuw %struct.UriTextRangeStructA, ptr %43, i32 0, i32 0
  store ptr %39, ptr %44, align 8, !tbaa !37
  %45 = load ptr, ptr %6, align 8, !tbaa !3
  %46 = load ptr, ptr %10, align 8, !tbaa !8
  %47 = load ptr, ptr %8, align 8, !tbaa !8
  %48 = call ptr @uriParseAuthorityTwoA(ptr noundef %45, ptr noundef %46, ptr noundef %47)
  store ptr %48, ptr %5, align 8
  store i32 1, ptr %11, align 4
  br label %49

49:                                               ; preds = %37, %36
  call void @llvm.lifetime.end.p0(i64 8, ptr %10) #7
  br label %56

50:                                               ; preds = %23
  %51 = load ptr, ptr %6, align 8, !tbaa !3
  %52 = load ptr, ptr %7, align 8, !tbaa !8
  %53 = load ptr, ptr %8, align 8, !tbaa !8
  %54 = load ptr, ptr %9, align 8, !tbaa !10
  %55 = call ptr @uriParseOwnHost2A(ptr noundef %51, ptr noundef %52, ptr noundef %53, ptr noundef %54)
  store ptr %55, ptr %5, align 8
  br label %56

56:                                               ; preds = %50, %49, %15
  %57 = load ptr, ptr %5, align 8
  ret ptr %57
}