; Function Attrs: inlinehint nounwind uwtable
define internal fastcc ptr @uriParseOwnHostA(ptr noundef nonnull %0, ptr noundef nonnull %1, ptr noundef nonnull %2, ptr noundef %3) unnamed_addr #4 {
  %.not = icmp ult ptr %1, %2
  br i1 %.not, label %8, label %5

5:                                                ; preds = %4
  %6 = load ptr, ptr %0, align 8, !tbaa !3
  %7 = getelementptr inbounds nuw i8, ptr %6, i64 40
  store ptr %2, ptr %7, align 8, !tbaa !40
  br label %uriParseAuthorityTwoA.exit

8:                                                ; preds = %4
  %9 = load i8, ptr %1, align 1, !tbaa !11
  %cond = icmp eq i8 %9, 91
  br i1 %cond, label %10, label %tailrecurse.i

10:                                               ; preds = %8
  %11 = getelementptr inbounds nuw i8, ptr %1, i64 1
  %12 = tail call fastcc ptr @uriParseIpLit2A(ptr noundef %0, ptr noundef %11, ptr noundef %2, ptr noundef %3)
  %13 = icmp eq ptr %12, null
  br i1 %13, label %uriParseAuthorityTwoA.exit, label %14

14:                                               ; preds = %10
  %15 = load ptr, ptr %0, align 8, !tbaa !3
  %16 = getelementptr inbounds nuw i8, ptr %15, i64 32
  store ptr %11, ptr %16, align 8, !tbaa !37
  %.not.i = icmp ult ptr %12, %2
  br i1 %.not.i, label %17, label %uriParseAuthorityTwoA.exit

17:                                               ; preds = %14
  %18 = load i8, ptr %12, align 1, !tbaa !11
  %cond.i = icmp eq i8 %18, 58
  br i1 %cond.i, label %19, label %uriParseAuthorityTwoA.exit

19:                                               ; preds = %17
  %20 = getelementptr inbounds nuw i8, ptr %12, i64 1
  %.not2.i.i = icmp ult ptr %20, %2
  br i1 %.not2.i.i, label %.lr.ph.i.i, label %uriParsePortA.exit.i

.lr.ph.i.i:                                       ; preds = %19, %tailrecurse.i.i
  %.tr3.i.i = phi ptr [ %22, %tailrecurse.i.i ], [ %20, %19 ]
  %21 = load i8, ptr %.tr3.i.i, align 1, !tbaa !11
  %.off.i.i = add i8 %21, -48
  %switch.i.i = icmp ult i8 %.off.i.i, 10
  br i1 %switch.i.i, label %tailrecurse.i.i, label %uriParsePortA.exit.i

tailrecurse.i.i:                                  ; preds = %.lr.ph.i.i
  %22 = getelementptr inbounds nuw i8, ptr %.tr3.i.i, i64 1
  %exitcond.not.i.i = icmp eq ptr %22, %2
  br i1 %exitcond.not.i.i, label %uriParsePortA.exit.i, label %.lr.ph.i.i

uriParsePortA.exit.i:                             ; preds = %tailrecurse.i.i, %.lr.ph.i.i, %19
  %.0.i.i = phi ptr [ %2, %19 ], [ %.tr3.i.i, %.lr.ph.i.i ], [ %2, %tailrecurse.i.i ]
  %23 = getelementptr inbounds nuw i8, ptr %15, i64 80
  store ptr %20, ptr %23, align 8, !tbaa !41
  %24 = getelementptr inbounds nuw i8, ptr %15, i64 88
  store ptr %.0.i.i, ptr %24, align 8, !tbaa !42
  br label %uriParseAuthorityTwoA.exit

tailrecurse.i:                                    ; preds = %8, %52
  %.tr38.i = phi ptr [ %53, %52 ], [ %1, %8 ]
  %.not.i25 = icmp ult ptr %.tr38.i, %2
  br i1 %.not.i25, label %50, label %25

25:                                               ; preds = %tailrecurse.i
  %26 = load ptr, ptr %0, align 8, !tbaa !3
  %27 = getelementptr inbounds nuw i8, ptr %26, i64 40
  store ptr %.tr38.i, ptr %27, align 8, !tbaa !40
  %28 = load ptr, ptr %3, align 8, !tbaa !49
  %29 = tail call ptr %28(ptr noundef nonnull %3, i64 noundef 4) #7
  %30 = load ptr, ptr %0, align 8, !tbaa !3
  %31 = getelementptr inbounds nuw i8, ptr %30, i64 48
  store ptr %29, ptr %31, align 8, !tbaa !38
  %32 = icmp eq ptr %29, null
  br i1 %32, label %uriOnExitOwnHost2A.exit.i, label %33

33:                                               ; preds = %25
  %34 = getelementptr inbounds nuw i8, ptr %30, i64 32
  %35 = load ptr, ptr %34, align 8, !tbaa !37
  %36 = getelementptr inbounds nuw i8, ptr %30, i64 40
  %37 = load ptr, ptr %36, align 8, !tbaa !40
  %38 = tail call i32 @uriParseIpFourAddressA(ptr noundef nonnull %29, ptr noundef %35, ptr noundef %37) #7
  %.not.i.i = icmp eq i32 %38, 0
  br i1 %.not.i.i, label %uriParseAuthorityTwoA.exit, label %39

39:                                               ; preds = %33
  %40 = getelementptr inbounds nuw i8, ptr %3, i64 32
  %41 = load ptr, ptr %40, align 8, !tbaa !32
  %42 = load ptr, ptr %0, align 8, !tbaa !3
  %43 = getelementptr inbounds nuw i8, ptr %42, i64 48
  %44 = load ptr, ptr %43, align 8, !tbaa !38
  tail call void %41(ptr noundef nonnull %3, ptr noundef %44) #7
  %45 = load ptr, ptr %0, align 8, !tbaa !3
  %46 = getelementptr inbounds nuw i8, ptr %45, i64 48
  store ptr null, ptr %46, align 8, !tbaa !38
  br label %uriParseAuthorityTwoA.exit

uriOnExitOwnHost2A.exit.i:                        ; preds = %25
  %47 = tail call i32 @uriFreeUriMembersMmA(ptr noundef nonnull %30, ptr noundef nonnull %3)
  %48 = getelementptr inbounds nuw i8, ptr %0, i64 16
  store ptr null, ptr %48, align 8, !tbaa !28
  %49 = getelementptr inbounds nuw i8, ptr %0, i64 8
  store i32 3, ptr %49, align 8, !tbaa !29
  br label %uriParseAuthorityTwoA.exit

50:                                               ; preds = %tailrecurse.i
  %51 = load i8, ptr %.tr38.i, align 1, !tbaa !11
  switch i8 %51, label %55 [
    i8 33, label %52
    i8 36, label %52
    i8 37, label %52
    i8 38, label %52
    i8 40, label %52
    i8 41, label %52
    i8 45, label %52
    i8 42, label %52
    i8 44, label %52
    i8 46, label %52
    i8 59, label %52
    i8 39, label %52
    i8 95, label %52
    i8 126, label %52
    i8 43, label %52
    i8 61, label %52
    i8 48, label %52
    i8 49, label %52
    i8 50, label %52
    i8 51, label %52
    i8 52, label %52
    i8 53, label %52
    i8 54, label %52
    i8 55, label %52
    i8 56, label %52
    i8 57, label %52
    i8 65, label %52
    i8 66, label %52
    i8 67, label %52
    i8 68, label %52
    i8 69, label %52
    i8 70, label %52
    i8 97, label %52
    i8 98, label %52
    i8 99, label %52
    i8 100, label %52
    i8 101, label %52
    i8 102, label %52
    i8 103, label %52
    i8 71, label %52
    i8 104, label %52
    i8 72, label %52
    i8 105, label %52
    i8 73, label %52
    i8 106, label %52
    i8 74, label %52
    i8 107, label %52
    i8 75, label %52
    i8 108, label %52
    i8 76, label %52
    i8 109, label %52
    i8 77, label %52
    i8 110, label %52
    i8 78, label %52
    i8 111, label %52
    i8 79, label %52
    i8 112, label %52
    i8 80, label %52
    i8 113, label %52
    i8 81, label %52
    i8 114, label %52
    i8 82, label %52
    i8 115, label %52
    i8 83, label %52
    i8 116, label %52
    i8 84, label %52
    i8 117, label %52
    i8 85, label %52
    i8 118, label %52
    i8 86, label %52
    i8 119, label %52
    i8 87, label %52
    i8 120, label %52
    i8 88, label %52
    i8 121, label %52
    i8 89, label %52
    i8 122, label %52
    i8 90, label %52
  ]

52:                                               ; preds = %50, %50, %50, %50, %50, %50, %50, %50, %50, %50, %50, %50, %50, %50, %50, %50, %50, %50, %50, %50, %50, %50, %50, %50, %50, %50, %50, %50, %50, %50, %50, %50, %50, %50, %50, %50, %50, %50, %50, %50, %50, %50, %50, %50, %50, %50, %50, %50, %50, %50, %50, %50, %50, %50, %50, %50, %50, %50, %50, %50, %50, %50, %50, %50, %50, %50, %50, %50, %50, %50, %50, %50, %50, %50, %50, %50, %50, %50
  %53 = tail call fastcc ptr @uriParsePctSubUnresA(ptr noundef nonnull %0, ptr noundef %.tr38.i, ptr noundef nonnull %2, ptr noundef %3)
  %54 = icmp eq ptr %53, null
  br i1 %54, label %uriParseAuthorityTwoA.exit, label %tailrecurse.i

55:                                               ; preds = %50
  %56 = tail call fastcc i32 @uriOnExitOwnHost2A(ptr noundef nonnull %0, ptr noundef %.tr38.i, ptr noundef %3)
  %.not32.i = icmp eq i32 %56, 0
  br i1 %.not32.i, label %57, label %62

57:                                               ; preds = %55
  %58 = load ptr, ptr %0, align 8, !tbaa !3
  %59 = tail call i32 @uriFreeUriMembersMmA(ptr noundef %58, ptr noundef %3)
  %60 = getelementptr inbounds nuw i8, ptr %0, i64 16
  store ptr null, ptr %60, align 8, !tbaa !28
  %61 = getelementptr inbounds nuw i8, ptr %0, i64 8
  store i32 3, ptr %61, align 8, !tbaa !29
  br label %uriParseAuthorityTwoA.exit

62:                                               ; preds = %55
  %63 = load i8, ptr %.tr38.i, align 1, !tbaa !11
  %cond.i.i = icmp eq i8 %63, 58
  br i1 %cond.i.i, label %64, label %uriParseAuthorityTwoA.exit

64:                                               ; preds = %62
  %65 = getelementptr inbounds nuw i8, ptr %.tr38.i, i64 1
  %.not2.i.i.i = icmp ult ptr %65, %2
  br i1 %.not2.i.i.i, label %.lr.ph.i.i.i, label %uriParsePortA.exit.i.i

.lr.ph.i.i.i:                                     ; preds = %64, %tailrecurse.i.i.i
  %.tr3.i.i.i = phi ptr [ %67, %tailrecurse.i.i.i ], [ %65, %64 ]
  %66 = load i8, ptr %.tr3.i.i.i, align 1, !tbaa !11
  %.off.i.i.i = add i8 %66, -48
  %switch.i.i.i = icmp ult i8 %.off.i.i.i, 10
  br i1 %switch.i.i.i, label %tailrecurse.i.i.i, label %uriParsePortA.exit.i.i

tailrecurse.i.i.i:                                ; preds = %.lr.ph.i.i.i
  %67 = getelementptr inbounds nuw i8, ptr %.tr3.i.i.i, i64 1
  %exitcond.not.i.i.i = icmp eq ptr %67, %2
  br i1 %exitcond.not.i.i.i, label %uriParsePortA.exit.i.i, label %.lr.ph.i.i.i

uriParsePortA.exit.i.i:                           ; preds = %tailrecurse.i.i.i, %.lr.ph.i.i.i, %64
  %.0.i.i.i = phi ptr [ %2, %64 ], [ %2, %tailrecurse.i.i.i ], [ %.tr3.i.i.i, %.lr.ph.i.i.i ]
  %68 = load ptr, ptr %0, align 8, !tbaa !3
  %69 = getelementptr inbounds nuw i8, ptr %68, i64 80
  store ptr %65, ptr %69, align 8, !tbaa !41
  %70 = getelementptr inbounds nuw i8, ptr %68, i64 88
  store ptr %.0.i.i.i, ptr %70, align 8, !tbaa !42
  br label %uriParseAuthorityTwoA.exit

uriParseAuthorityTwoA.exit:                       ; preds = %52, %uriParsePortA.exit.i.i, %62, %57, %uriOnExitOwnHost2A.exit.i, %39, %33, %uriParsePortA.exit.i, %17, %14, %10, %5
  %.0 = phi ptr [ %2, %5 ], [ null, %10 ], [ %.0.i.i, %uriParsePortA.exit.i ], [ %2, %14 ], [ %12, %17 ], [ null, %uriOnExitOwnHost2A.exit.i ], [ null, %57 ], [ %.0.i.i.i, %uriParsePortA.exit.i.i ], [ %.tr38.i, %62 ], [ %2, %39 ], [ %2, %33 ], [ null, %52 ]
  ret ptr %.0
}